; Function Attrs: nounwind uwtable
define ptr @lv_display_get_event_dsc(ptr noundef %0, i32 noundef %1) local_unnamed_addr #0 {
  %.not = icmp eq ptr %0, null
  br i1 %.not, label %.preheader, label %3

.preheader:                                       ; preds = %2, %.preheader
  br label %.preheader

3:                                                ; preds = %2
  %4 = getelementptr inbounds nuw i8, ptr %0, i64 856
  %5 = tail call ptr @lv_event_get_dsc(ptr noundef nonnull %4, i32 noundef %1) #13
  ret ptr %5
}